; Function Attrs: mustprogress uwtable
define noundef ptr @ureldatefmt_openResult_77(ptr noundef captures(none) %0) local_unnamed_addr #1 personality ptr @__gxx_personality_v0 {
  %2 = load i32, ptr %0, align 4, !tbaa !13
  %3 = icmp slt i32 %2, 1
  br i1 %3, label %4, label %11

4:                                                ; preds = %1
  %5 = tail call noundef ptr @_ZN6icu_777UMemorynwEm(i64 noundef 48) #20
  %6 = icmp eq ptr %5, null
  br i1 %6, label %8, label %7

7:                                                ; preds = %4
  invoke void @_ZN6icu_7730UFormattedRelativeDateTimeImplC1Ev(ptr noundef nonnull align 8 dereferenceable(48) %5)
          to label %11 unwind label %9

8:                                                ; preds = %4
  store i32 7, ptr %0, align 4, !tbaa !13
  br label %11

9:                                                ; preds = %7
  %10 = landingpad { ptr, i32 }
          cleanup
  tail call void @_ZN6icu_777UMemorydlEPv(ptr noundef nonnull %5) #20
  resume { ptr, i32 } %10

11:                                               ; preds = %7, %8, %1
  %.0 = phi ptr [ null, %1 ], [ null, %8 ], [ %5, %7 ]
  ret ptr %.0
}